; Function Attrs: mustprogress nofree norecurse nosync nounwind willreturn memory(read, argmem: readwrite, inaccessiblemem: none) uwtable
define i64 @stream_read_bits(ptr noundef captures(none) %0, i64 noundef %1) local_unnamed_addr #2 {
  %3 = getelementptr inbounds nuw i8, ptr %0, i64 8
  %4 = load i64, ptr %3, align 8
  %5 = load i64, ptr %0, align 8
  %6 = icmp ult i64 %5, %1
  br i1 %6, label %7, label %24

7:                                                ; preds = %2
  %8 = getelementptr inbounds nuw i8, ptr %0, i64 16
  %9 = load ptr, ptr %8, align 8
  %10 = getelementptr inbounds nuw i8, ptr %9, i64 8
  store ptr %10, ptr %8, align 8
  %11 = load i64, ptr %9, align 8
  %12 = shl i64 %11, %5
  %13 = add i64 %12, %4
  %14 = add i64 %5, 64
  %15 = sub i64 %14, %1
  store i64 %15, ptr %0, align 8
  %.not = icmp eq i64 %14, %1
  br i1 %.not, label %16, label %17

16:                                               ; preds = %7
  store i64 0, ptr %3, align 8
  br label %29

17:                                               ; preds = %7
  %18 = sub i64 64, %15
  %19 = lshr i64 %11, %18
  store i64 %19, ptr %3, align 8
  %20 = add i64 %1, -1
  %21 = shl i64 2, %20
  %22 = add i64 %21, -1
  %23 = and i64 %13, %22
  br label %29

24:                                               ; preds = %2
  %25 = sub nuw i64 %5, %1
  store i64 %25, ptr %0, align 8
  %26 = lshr i64 %4, %1
  store i64 %26, ptr %3, align 8
  %notmask = shl nsw i64 -1, %1
  %27 = xor i64 %notmask, -1
  %28 = and i64 %4, %27
  br label %29

29:                                               ; preds = %16, %17, %24
  %.0 = phi i64 [ %23, %17 ], [ %13, %16 ], [ %28, %24 ]
  ret i64 %.0
}